target datalayout = "e-m:e-p270:32:32-p271:32:32-p272:64:64-i64:64-i128:128-f80:128-n8:16:32:64-S128"
target triple = "x86_64-pc-linux-gnu"

%struct._object = type { %union.anon, ptr }
%union.anon = type { i64 }
%struct.PyVarObject = type { %struct._object, i64 }
%struct.RFILE = type { ptr, i32, ptr, ptr, ptr, ptr, i64, ptr, i32 }
%struct.anon = type { i32, i32 }
%struct.Py_buffer = type { ptr, ptr, i64, i64, i32, i32, ptr, ptr, ptr, ptr, ptr }

; Function Attrs: alwaysinline nounwind uwtable
define internal i32 @_Py_IsImmortal(ptr noundef %0) #4 {
  %2 = alloca ptr, align 8
  store ptr %0, ptr %2, align 8, !tbaa !25
  %3 = load ptr, ptr %2, align 8, !tbaa !25
  %4 = getelementptr inbounds nuw %struct._object, ptr %3, i32 0, i32 0
  %5 = getelementptr inbounds nuw %struct.anon, ptr %4, i32 0, i32 0
  %6 = load i32, ptr %5, align 8, !tbaa !24
  %7 = icmp slt i32 %6, 0
  %8 = zext i1 %7 to i32
  ret i32 %8
}

; Function Attrs: alwaysinline nounwind uwtable
define internal void @Py_DECREF(ptr noundef %0) #4 {
  %2 = alloca ptr, align 8
  store ptr %0, ptr %2, align 8, !tbaa !25
  %3 = load ptr, ptr %2, align 8, !tbaa !25
  %4 = call i32 @_Py_IsImmortal(ptr noundef %3)
  %5 = icmp ne i32 %4, 0
  br i1 %5, label %6, label %7

6:                                                ; preds = %1
  br label %16

7:                                                ; preds = %1
  %8 = load ptr, ptr %2, align 8, !tbaa !25
  %9 = getelementptr inbounds nuw %struct._object, ptr %8, i32 0, i32 0
  %10 = getelementptr inbounds nuw %struct.anon, ptr %9, i32 0, i32 0
  %11 = load i32, ptr %10, align 8, !tbaa !24
  %12 = add i32 %11, -1
  store i32 %12, ptr %10, align 8, !tbaa !24
  %13 = icmp eq i32 %12, 0
  br i1 %13, label %14, label %16

14:                                               ; preds = %7
  %15 = load ptr, ptr %2, align 8, !tbaa !25
  call void @_Py_Dealloc(ptr noundef %15)
  br label %16

16:                                               ; preds = %6, %14, %7
  ret void
}

; Function Attrs: inlinehint nounwind uwtable
define internal i64 @Py_SIZE(ptr noundef %0) #5 {
  %2 = alloca ptr, align 8
  store ptr %0, ptr %2, align 8, !tbaa !25
  %3 = load ptr, ptr %2, align 8, !tbaa !25
  %4 = getelementptr inbounds nuw %struct.PyVarObject, ptr %3, i32 0, i32 1
  %5 = load i64, ptr %4, align 8, !tbaa !45
  ret i64 %5
}

; Function Attrs: nounwind uwtable
define internal ptr @marshal_loads_impl(ptr noundef %0, ptr noundef %1, i32 noundef %2) #0 {
  %4 = alloca ptr, align 8
  %5 = alloca ptr, align 8
  %6 = alloca ptr, align 8
  %7 = alloca i32, align 4
  %8 = alloca %struct.RFILE, align 8
  %9 = alloca ptr, align 8
  %10 = alloca i64, align 8
  %11 = alloca ptr, align 8
  %12 = alloca i32, align 4
  store ptr %0, ptr %5, align 8, !tbaa !25
  store ptr %1, ptr %6, align 8, !tbaa !23
  store i32 %2, ptr %7, align 4, !tbaa !11
  call void @llvm.lifetime.start.p0(i64 72, ptr %8) #11
  call void @llvm.lifetime.start.p0(i64 8, ptr %9) #11
  %13 = load ptr, ptr %6, align 8, !tbaa !23
  %14 = getelementptr inbounds nuw %struct.Py_buffer, ptr %13, i32 0, i32 0
  %15 = load ptr, ptr %14, align 8, !tbaa !83
  store ptr %15, ptr %9, align 8, !tbaa !37
  call void @llvm.lifetime.start.p0(i64 8, ptr %10) #11
  %16 = load ptr, ptr %6, align 8, !tbaa !23
  %17 = getelementptr inbounds nuw %struct.Py_buffer, ptr %16, i32 0, i32 2
  %18 = load i64, ptr %17, align 8, !tbaa !86
  store i64 %18, ptr %10, align 8, !tbaa !4
  call void @llvm.lifetime.start.p0(i64 8, ptr %11) #11
  %19 = load i32, ptr %7, align 4, !tbaa !11
  %20 = getelementptr inbounds nuw %struct.RFILE, ptr %8, i32 0, i32 8
  store i32 %19, ptr %20, align 8, !tbaa !41
  %21 = getelementptr inbounds nuw %struct.RFILE, ptr %8, i32 0, i32 0
  store ptr null, ptr %21, align 8, !tbaa !31
  %22 = getelementptr inbounds nuw %struct.RFILE, ptr %8, i32 0, i32 2
  store ptr null, ptr %22, align 8, !tbaa !29
  %23 = load ptr, ptr %9, align 8, !tbaa !37
  %24 = getelementptr inbounds nuw %struct.RFILE, ptr %8, i32 0, i32 3
  store ptr %23, ptr %24, align 8, !tbaa !32
  %25 = load ptr, ptr %9, align 8, !tbaa !37
  %26 = load i64, ptr %10, align 8, !tbaa !4
  %27 = getelementptr i8, ptr %25, i64 %26
  %28 = getelementptr inbounds nuw %struct.RFILE, ptr %8, i32 0, i32 4
  store ptr %27, ptr %28, align 8, !tbaa !33
  %29 = getelementptr inbounds nuw %struct.RFILE, ptr %8, i32 0, i32 1
  store i32 0, ptr %29, align 8, !tbaa !42
  %30 = call ptr @PyList_New(i64 noundef 0)
  %31 = getelementptr inbounds nuw %struct.RFILE, ptr %8, i32 0, i32 7
  store ptr %30, ptr %31, align 8, !tbaa !43
  %32 = icmp eq ptr %30, null
  br i1 %32, label %33, label %34

33:                                               ; preds = %3
  store ptr null, ptr %4, align 8
  store i32 1, ptr %12, align 4
  br label %39

34:                                               ; preds = %3
  %35 = call ptr @read_object(ptr noundef %8)
  store ptr %35, ptr %11, align 8, !tbaa !25
  %36 = getelementptr inbounds nuw %struct.RFILE, ptr %8, i32 0, i32 7
  %37 = load ptr, ptr %36, align 8, !tbaa !43
  call void @Py_DECREF(ptr noundef %37)
  %38 = load ptr, ptr %11, align 8, !tbaa !25
  store ptr %38, ptr %4, align 8
  store i32 1, ptr %12, align 4
  br label %39

39:                                               ; preds = %34, %33
  call void @llvm.lifetime.end.p0(i64 8, ptr %11) #11
  call void @llvm.lifetime.end.p0(i64 8, ptr %10) #11
  call void @llvm.lifetime.end.p0(i64 8, ptr %9) #11
  call void @llvm.lifetime.end.p0(i64 72, ptr %8) #11
  %40 = load ptr, ptr %4, align 8
  ret ptr %40
}

; Function Attrs: inlinehint nounwind uwtable
define internal i64 @PyTuple_GET_SIZE(ptr noundef %0) #5 {
  %2 = alloca ptr, align 8
  %3 = alloca ptr, align 8
  store ptr %0, ptr %2, align 8, !tbaa !25
  call void @llvm.lifetime.start.p0(i64 8, ptr %3) #11
  %4 = load ptr, ptr %2, align 8, !tbaa !25
  store ptr %4, ptr %3, align 8, !tbaa !23
  %5 = load ptr, ptr %3, align 8, !tbaa !23
  %6 = call i64 @Py_SIZE(ptr noundef %5)
  call void @llvm.lifetime.end.p0(i64 8, ptr %3) #11
  ret i64 %6
}

; Function Attrs: nounwind uwtable
define internal ptr @marshal_loads(ptr noundef %0, ptr noundef %1, i64 noundef %2, ptr noundef %3) #0 {
  %5 = alloca ptr, align 8
  %6 = alloca ptr, align 8
  %7 = alloca i64, align 8
  %8 = alloca ptr, align 8
  %9 = alloca ptr, align 8
  %10 = alloca [2 x ptr], align 16
  %11 = alloca i64, align 8
  %12 = alloca %struct.Py_buffer, align 8
  %13 = alloca i32, align 4
  store ptr %0, ptr %5, align 8, !tbaa !25
  store ptr %1, ptr %6, align 8, !tbaa !140
  store i64 %2, ptr %7, align 8, !tbaa !4
  store ptr %3, ptr %8, align 8, !tbaa !25
  call void @llvm.lifetime.start.p0(i64 8, ptr %9) #11
  store ptr null, ptr %9, align 8, !tbaa !25
  call void @llvm.lifetime.start.p0(i64 16, ptr %10) #11
  call void @llvm.lifetime.start.p0(i64 8, ptr %11) #11
  %14 = load i64, ptr %7, align 8, !tbaa !4
  %15 = load ptr, ptr %8, align 8, !tbaa !25
  %16 = icmp ne ptr %15, null
  br i1 %16, label %17, label %20

17:                                               ; preds = %4
  %18 = load ptr, ptr %8, align 8, !tbaa !25
  %19 = call i64 @PyTuple_GET_SIZE(ptr noundef %18)
  br label %21

20:                                               ; preds = %4
  br label %21

21:                                               ; preds = %20, %17
  %22 = phi i64 [ %19, %17 ], [ 0, %20 ]
  %23 = add i64 %14, %22
  %24 = sub i64 %23, 1
  store i64 %24, ptr %11, align 8, !tbaa !4
  call void @llvm.lifetime.start.p0(i64 80, ptr %12) #11
  call void @llvm.memset.p0.i64(ptr align 8 %12, i8 0, i64 80, i1 false)
  call void @llvm.lifetime.start.p0(i64 4, ptr %13) #11
  store i32 1, ptr %13, align 4, !tbaa !11
  %25 = load ptr, ptr %8, align 8, !tbaa !25
  %26 = icmp eq ptr %25, null
  br i1 %26, label %27, label %38

27:                                               ; preds = %21
  %28 = load i64, ptr %7, align 8, !tbaa !4
  %29 = icmp sle i64 1, %28
  br i1 %29, label %30, label %38

30:                                               ; preds = %27
  %31 = load i64, ptr %7, align 8, !tbaa !4
  %32 = icmp sle i64 %31, 1
  br i1 %32, label %33, label %38

33:                                               ; preds = %30
  %34 = load ptr, ptr %6, align 8, !tbaa !140
  %35 = icmp ne ptr %34, null
  br i1 %35, label %36, label %38

36:                                               ; preds = %33
  %37 = load ptr, ptr %6, align 8, !tbaa !140
  br label %44

38:                                               ; preds = %33, %30, %27, %21
  %39 = load ptr, ptr %6, align 8, !tbaa !140
  %40 = load i64, ptr %7, align 8, !tbaa !4
  %41 = load ptr, ptr %8, align 8, !tbaa !25
  %42 = getelementptr inbounds [2 x ptr], ptr %10, i64 0, i64 0
  %43 = call ptr @_PyArg_UnpackKeywords(ptr noundef %39, i64 noundef %40, ptr noundef null, ptr noundef %41, ptr noundef @marshal_loads._parser, i32 noundef 1, i32 noundef 1, i32 noundef 0, i32 noundef 0, ptr noundef %42)
  br label %44

44:                                               ; preds = %38, %36
  %45 = phi ptr [ %37, %36 ], [ %43, %38 ]
  store ptr %45, ptr %6, align 8, !tbaa !140
  %46 = load ptr, ptr %6, align 8, !tbaa !140
  %47 = icmp ne ptr %46, null
  br i1 %47, label %49, label %48

48:                                               ; preds = %44
  br label %73

49:                                               ; preds = %44
  %50 = load ptr, ptr %6, align 8, !tbaa !140
  %51 = getelementptr ptr, ptr %50, i64 0
  %52 = load ptr, ptr %51, align 8, !tbaa !25
  %53 = call i32 @PyObject_GetBuffer(ptr noundef %52, ptr noundef %12, i32 noundef 0)
  %54 = icmp ne i32 %53, 0
  br i1 %54, label %55, label %56

55:                                               ; preds = %49
  br label %73

56:                                               ; preds = %49
  %57 = load i64, ptr %11, align 8, !tbaa !4
  %58 = icmp ne i64 %57, 0
  br i1 %58, label %60, label %59

59:                                               ; preds = %56
  br label %69

60:                                               ; preds = %56
  %61 = load ptr, ptr %6, align 8, !tbaa !140
  %62 = getelementptr ptr, ptr %61, i64 1
  %63 = load ptr, ptr %62, align 8, !tbaa !25
  %64 = call i32 @PyObject_IsTrue(ptr noundef %63)
  store i32 %64, ptr %13, align 4, !tbaa !11
  %65 = load i32, ptr %13, align 4, !tbaa !11
  %66 = icmp slt i32 %65, 0
  br i1 %66, label %67, label %68

67:                                               ; preds = %60
  br label %73

68:                                               ; preds = %60
  br label %69

69:                                               ; preds = %68, %59
  %70 = load ptr, ptr %5, align 8, !tbaa !25
  %71 = load i32, ptr %13, align 4, !tbaa !11
  %72 = call ptr @marshal_loads_impl(ptr noundef %70, ptr noundef %12, i32 noundef %71)
  store ptr %72, ptr %9, align 8, !tbaa !25
  br label %73

73:                                               ; preds = %69, %67, %55, %48
  %74 = getelementptr inbounds nuw %struct.Py_buffer, ptr %12, i32 0, i32 1
  %75 = load ptr, ptr %74, align 8, !tbaa !184
  %76 = icmp ne ptr %75, null
  br i1 %76, label %77, label %78

77:                                               ; preds = %73
  call void @PyBuffer_Release(ptr noundef %12)
  br label %78

78:                                               ; preds = %77, %73
  %79 = load ptr, ptr %9, align 8, !tbaa !25
  call void @llvm.lifetime.end.p0(i64 4, ptr %13) #11
  call void @llvm.lifetime.end.p0(i64 80, ptr %12) #11
  call void @llvm.lifetime.end.p0(i64 8, ptr %11) #11
  call void @llvm.lifetime.end.p0(i64 16, ptr %10) #11
  call void @llvm.lifetime.end.p0(i64 8, ptr %9) #11
  ret ptr %79
}