; Function Attrs: nounwind uwtable
define internal ptr @marshal_loads(ptr readnone captures(none) %0, ptr noundef %1, i64 noundef %2, ptr noundef %3) #0 {
  %5 = alloca %struct.RFILE, align 8
  %6 = alloca [2 x ptr], align 16
  %7 = alloca %struct.Py_buffer, align 8
  call void @llvm.lifetime.start.p0(i64 16, ptr nonnull %6) #11
  %.not = icmp eq ptr %3, null
  br i1 %.not, label %10, label %8

8:                                                ; preds = %4
  %9 = getelementptr i8, ptr %3, i64 16
  %.val = load i64, ptr %9, align 8, !tbaa !19
  br label %10

10:                                               ; preds = %4, %8
  %11 = phi i64 [ %.val, %8 ], [ 0, %4 ]
  %12 = add i64 %11, %2
  call void @llvm.lifetime.start.p0(i64 80, ptr nonnull %7) #11
  call void @llvm.memset.p0.i64(ptr noundef nonnull align 8 dereferenceable(80) %7, i8 0, i64 80, i1 false)
  %13 = icmp eq i64 %2, 1
  %14 = icmp ne ptr %1, null
  %15 = and i1 %14, %13
  %or.cond5 = and i1 %15, %.not
  br i1 %or.cond5, label %.thread, label %16

16:                                               ; preds = %10
  %17 = call ptr @_PyArg_UnpackKeywords(ptr noundef %1, i64 noundef %2, ptr noundef null, ptr noundef %3, ptr noundef nonnull @marshal_loads._parser, i32 noundef 1, i32 noundef 1, i32 noundef 0, i32 noundef 0, ptr noundef nonnull %6) #11
  %.not28 = icmp eq ptr %17, null
  br i1 %.not28, label %46, label %.thread

.thread:                                          ; preds = %10, %16
  %18 = phi ptr [ %17, %16 ], [ %1, %10 ]
  %19 = load ptr, ptr %18, align 8, !tbaa !29
  %20 = call i32 @PyObject_GetBuffer(ptr noundef %19, ptr noundef nonnull %7, i32 noundef 0) #11
  %.not29 = icmp eq i32 %20, 0
  br i1 %.not29, label %21, label %46

21:                                               ; preds = %.thread
  %.not30 = icmp eq i64 %12, 1
  br i1 %.not30, label %27, label %22

22:                                               ; preds = %21
  %23 = getelementptr i8, ptr %18, i64 8
  %24 = load ptr, ptr %23, align 8, !tbaa !29
  %25 = call i32 @PyObject_IsTrue(ptr noundef %24) #11
  %26 = icmp slt i32 %25, 0
  br i1 %26, label %46, label %27

27:                                               ; preds = %22, %21
  %.0 = phi i32 [ %25, %22 ], [ 1, %21 ]
  %.val32 = load ptr, ptr %7, align 8, !tbaa !85
  %28 = getelementptr inbounds nuw i8, ptr %7, i64 16
  %.val33 = load i64, ptr %28, align 8, !tbaa !88
  call void @llvm.lifetime.start.p0(i64 72, ptr nonnull %5) #11
  %29 = getelementptr inbounds nuw i8, ptr %5, i64 64
  store i32 %.0, ptr %29, align 8, !tbaa !47
  store ptr null, ptr %5, align 8, !tbaa !45
  %30 = getelementptr inbounds nuw i8, ptr %5, i64 16
  store ptr null, ptr %30, align 8, !tbaa !43
  %31 = getelementptr inbounds nuw i8, ptr %5, i64 24
  store ptr %.val32, ptr %31, align 8, !tbaa !48
  %32 = getelementptr i8, ptr %.val32, i64 %.val33
  %33 = getelementptr inbounds nuw i8, ptr %5, i64 32
  store ptr %32, ptr %33, align 8, !tbaa !49
  %34 = getelementptr inbounds nuw i8, ptr %5, i64 8
  store i32 0, ptr %34, align 8, !tbaa !50
  %35 = call ptr @PyList_New(i64 noundef 0) #11
  %36 = getelementptr inbounds nuw i8, ptr %5, i64 56
  store ptr %35, ptr %36, align 8, !tbaa !51
  %37 = icmp eq ptr %35, null
  br i1 %37, label %marshal_loads_impl.exit, label %38

38:                                               ; preds = %27
  %39 = call fastcc ptr @read_object(ptr noundef %5)
  %40 = load ptr, ptr %36, align 8, !tbaa !51
  %41 = load i32, ptr %40, align 8, !tbaa !25
  %.not.i.i = icmp sgt i32 %41, -1
  br i1 %.not.i.i, label %42, label %marshal_loads_impl.exit

42:                                               ; preds = %38
  %43 = add nsw i32 %41, -1
  store i32 %43, ptr %40, align 8, !tbaa !25
  %44 = icmp eq i32 %43, 0
  br i1 %44, label %45, label %marshal_loads_impl.exit

45:                                               ; preds = %42
  call void @_Py_Dealloc(ptr noundef nonnull %40) #11
  br label %marshal_loads_impl.exit

marshal_loads_impl.exit:                          ; preds = %27, %38, %42, %45
  %.0.i = phi ptr [ null, %27 ], [ %39, %38 ], [ %39, %42 ], [ %39, %45 ]
  call void @llvm.lifetime.end.p0(i64 72, ptr nonnull %5) #11
  br label %46

46:                                               ; preds = %22, %.thread, %16, %marshal_loads_impl.exit
  %.023 = phi ptr [ null, %.thread ], [ null, %22 ], [ %.0.i, %marshal_loads_impl.exit ], [ null, %16 ]
  %47 = getelementptr inbounds nuw i8, ptr %7, i64 8
  %48 = load ptr, ptr %47, align 8, !tbaa !160
  %.not31 = icmp eq ptr %48, null
  br i1 %.not31, label %50, label %49

49:                                               ; preds = %46
  call void @PyBuffer_Release(ptr noundef nonnull %7) #11
  br label %50

50:                                               ; preds = %49, %46
  call void @llvm.lifetime.end.p0(i64 80, ptr nonnull %7) #11
  call void @llvm.lifetime.end.p0(i64 16, ptr nonnull %6) #11
  ret ptr %.023
}